; Function Attrs: null_pointer_is_valid sspstrong uwtable
define internal noundef zeroext i1 @autosar_dlt_read(ptr noundef %0, ptr noundef %1, ptr noundef %2, ptr noundef %3, ptr noundef writeonly captures(none) initializes((0, 8)) %4) #0 {
  %6 = alloca %struct.autosar_dlt_params, align 8
  call void @llvm.lifetime.start.p0(i64 32, ptr nonnull %6) #7
  store ptr %0, ptr %6, align 8
  %7 = load ptr, ptr %0, align 8
  %8 = getelementptr inbounds nuw i8, ptr %6, i64 16
  store ptr %7, ptr %8, align 8
  %9 = getelementptr inbounds nuw i8, ptr %6, i64 8
  store ptr %1, ptr %9, align 8
  %10 = getelementptr inbounds nuw i8, ptr %0, i64 96
  %11 = load ptr, ptr %10, align 8
  %12 = getelementptr inbounds nuw i8, ptr %6, i64 24
  store ptr %11, ptr %12, align 8
  %13 = tail call i64 @file_tell(ptr noundef %7)
  store i64 %13, ptr %4, align 8
  %14 = call fastcc zeroext i1 @autosar_dlt_read_block(ptr noundef nonnull %6, i64 noundef %13, ptr noundef %2, ptr noundef %3)
  call void @llvm.lifetime.end.p0(i64 32, ptr nonnull %6) #7
  ret i1 %14
}